******************************************************************************
             TMS320C2000 Linker PC v22.6.1                     
******************************************************************************
>> Linked Sat Aug 17 10:56:13 2024

OUTPUT FILE NAME:   <Multiphase-Interleaved-CLLC.out>
ENTRY POINT SYMBOL: "code_start"  address: 00080000


MEMORY CONFIGURATION

         name            origin    length      used     unused   attr    fill
----------------------  --------  ---------  --------  --------  ----  --------
PAGE 0:
  RAMM0                 000000f6   0000030a  00000000  0000030a  RWIX
  RAMLS0                00008000   00000800  00000129  000006d7  RWIX
  RAMLS1                00008800   00000800  00000000  00000800  RWIX
  RAMLS2                00009000   00000800  00000000  00000800  RWIX
  RAMLS3                00009800   00000800  00000000  00000800  RWIX
  RAMLS4                0000a000   00000800  00000000  00000800  RWIX
  BEGIN                 00080000   00000002  00000002  00000000  RWIX
  FLASH_BANK0_SEC0      00080002   00000ffe  00000000  00000ffe  RWIX
  FLASH_BANK0_SEC1      00081000   00001000  0000013b  00000ec5  RWIX
  FLASH_BANK0_SEC2      00082000   00001000  00000a2b  000005d5  RWIX
  FLASH_BANK0_SEC3      00083000   00001000  00000000  00001000  RWIX
  FLASH_BANK0_SEC4      00084000   00001000  0000021e  00000de2  RWIX
  FLASH_BANK0_SEC5      00085000   00001000  00000000  00001000  RWIX
  FLASH_BANK0_SEC6      00086000   00001000  00000000  00001000  RWIX
  FLASH_BANK0_SEC7      00087000   00001000  00000000  00001000  RWIX
  FLASH_BANK0_SEC8      00088000   00001000  00000000  00001000  RWIX
  FLASH_BANK0_SEC9      00089000   00001000  00000000  00001000  RWIX
  FLASH_BANK0_SEC10     0008a000   00001000  00000000  00001000  RWIX
  FLASH_BANK0_SEC11     0008b000   00001000  00000000  00001000  RWIX
  FLASH_BANK0_SEC12     0008c000   00001000  00000000  00001000  RWIX
  FLASH_BANK0_SEC13     0008d000   00001000  00000000  00001000  RWIX
  FLASH_BANK0_SEC14     0008e000   00001000  00000000  00001000  RWIX
  FLASH_BANK0_SEC15     0008f000   00001000  00000000  00001000  RWIX
  FLASH_BANK1_SEC0      00090000   00001000  00000000  00001000  RWIX
  FLASH_BANK1_SEC1      00091000   00001000  00000000  00001000  RWIX
  FLASH_BANK1_SEC2      00092000   00001000  00000000  00001000  RWIX
  FLASH_BANK1_SEC3      00093000   00001000  00000000  00001000  RWIX
  FLASH_BANK1_SEC4      00094000   00001000  00000000  00001000  RWIX
  FLASH_BANK1_SEC5      00095000   00001000  00000000  00001000  RWIX
  FLASH_BANK1_SEC6      00096000   00001000  00000000  00001000  RWIX
  FLASH_BANK1_SEC7      00097000   00001000  00000000  00001000  RWIX
  FLASH_BANK1_SEC8      00098000   00001000  00000000  00001000  RWIX
  FLASH_BANK1_SEC9      00099000   00001000  00000000  00001000  RWIX
  FLASH_BANK1_SEC10     0009a000   00001000  00000000  00001000  RWIX
  FLASH_BANK1_SEC11     0009b000   00001000  00000000  00001000  RWIX
  FLASH_BANK1_SEC12     0009c000   00001000  00000000  00001000  RWIX
  FLASH_BANK1_SEC13     0009d000   00001000  00000000  00001000  RWIX
  FLASH_BANK1_SEC14     0009e000   00001000  00000000  00001000  RWIX
  FLASH_BANK1_SEC15     0009f000   00000ff0  00000000  00000ff0  RWIX
  RESET                 003fffc0   00000002  00000000  00000002  RWIX

PAGE 1:
  BOOT_RSVD             00000002   000000f1  00000000  000000f1  RWIX
  RAMM1                 00000400   000003f8  000003f8  00000000  RWIX
  RAMLS5                0000a800   00000800  0000000c  000007f4  RWIX
  RAMLS6                0000b000   00000800  00000000  00000800  RWIX
  RAMLS7                0000b800   00000800  00000000  00000800  RWIX
  RAMGS0                0000c000   00002000  00000000  00002000  RWIX
  RAMGS1                0000e000   00002000  00000000  00002000  RWIX
  RAMGS2                00010000   00002000  00000000  00002000  RWIX
  RAMGS3                00012000   00001ff8  00000000  00001ff8  RWIX


SECTION ALLOCATION MAP

 output                                  attributes/
section   page    origin      length       input sections
--------  ----  ----------  ----------   ----------------
codestart 
*          0    00080000    00000002     
                  00080000    00000002     f28004x_codestartbranch.obj (codestart)

.cinit     0    0008112c    00000012     
                  0008112c    0000000a     (.cinit..data.load) [load image, compression = lzss]
                  00081136    00000004     (__TI_handler_table)
                  0008113a    00000004     (__TI_cinit_table)

.reset     0    003fffc0    00000000     DSECT

.stack     1    00000400    000003f8     UNINITIALIZED
                  00000400    000003f8     --HOLE--

.init_array 
*          0    00081000    00000000     UNINITIALIZED

.data      1    0000a800    0000000c     UNINITIALIZED
                  0000a800    00000006     rts2800_fpu32_eabi.lib : exit.c.obj (.data)
                  0000a806    00000002                            : _lock.c.obj (.data:_lock)
                  0000a808    00000002                            : _lock.c.obj (.data:_unlock)
                  0000a80a    00000002     main.obj (.data)

.const     0    00084000    0000021e     
                  00084000    0000009b     driverlib_eabi.lib : flash.obj (.const:.string)
                  0008409b    00000001     --HOLE-- [fill = 0]
                  0008409c    0000009a                        : sysctl.obj (.const:.string)
                  00084136    00000098                        : gpio.obj (.const:.string)
                  000841ce    00000050                        : cputimer.obj (.const:.string)

.TI.ramfunc 
*          0    00081000    00000129     RUN ADDR = 00008000
                  00081000    00000044     driverlib_eabi.lib : flash.obj (.TI.ramfunc:Flash_initModule)
                  00081044    0000002c                        : flash.obj (.TI.ramfunc:Flash_setBankPowerMode)
                  00081070    00000024                        : flash.obj (.TI.ramfunc:Flash_setWaitstates)
                  00081094    0000001d                        : flash.obj (.TI.ramfunc:Flash_setPumpPowerMode)
                  000810b1    00000018                        : flash.obj (.TI.ramfunc:Flash_disableCache)
                  000810c9    00000018                        : flash.obj (.TI.ramfunc:Flash_disablePrefetch)
                  000810e1    00000017                        : flash.obj (.TI.ramfunc:Flash_enableCache)
                  000810f8    00000017                        : flash.obj (.TI.ramfunc:Flash_enablePrefetch)
                  0008110f    00000016                        : flash.obj (.TI.ramfunc:Flash_enableECC)
                  00081125    00000004                        : sysctl.obj (.TI.ramfunc)

.text      0    00082000    00000a2b     
                  00082000    000000d7     device.obj (.text:Device_enableAllPeripherals)
                  000820d7    000000c0     driverlib_eabi.lib : sysctl.obj (.text:SysCtl_setClock)
                  00082197    000000bd                        : sysctl.obj (.text:SysCtl_isPLLValid)
                  00082254    00000073                        : sysctl.obj (.text:DCC_setCounterSeeds)
                  000822c7    00000073     device.obj (.text:Device_init)
                  0008233a    0000005e     driverlib_eabi.lib : sysctl.obj (.text:SysCtl_getClock)
                  00082398    00000052                        : gpio.obj (.text:GPIO_setPadConfig)
                  000823ea    00000049                        : sysctl.obj (.text:SysCtl_selectOscSource)
                  00082433    00000045                        : sysctl.obj (.text:SysCtl_pollX1Counter)
                  00082478    00000043     board.obj (.text:INTERRUPT_init)
                  000824bb    0000003d     driverlib_eabi.lib : interrupt.obj (.text:Interrupt_initModule)
                  000824f8    0000003a                        : gpio.obj (.text:GPIO_setAnalogMode)
                  00082532    00000037                        : interrupt.obj (.text:Interrupt_enable)
                  00082569    00000036                        : sysctl.obj (.text:SysCtl_selectXTAL)
                  0008259f    00000036     board.obj (.text:myCPUTIMER2_init)
                  000825d5    00000031     driverlib_eabi.lib : gpio.obj (.text:GPIO_setDirectionMode)
                  00082606    00000030     rts2800_fpu32_eabi.lib : copy_decompress_lzss.c.obj (.text:decompress:lzss)
                  00082636    0000002b                            : autoinit.c.obj (.text:__TI_auto_init_nobinit_nopinit)
                  00082661    00000029                            : exit.c.obj (.text)
                  0008268a    00000026     board.obj (.text:myCPUTIMER0_init)
                  000826b0    00000026     board.obj (.text:myCPUTIMER1_init)
                  000826d6    00000024     driverlib_eabi.lib : sysctl.obj (.text:DCC_enableSingleShotMode)
                  000826fa    00000020     main.obj (.text:FAULT_INPUT1_ISR)
                  0008271a    00000020     main.obj (.text:FAULT_INPUT2_ISR)
                  0008273a    00000020     driverlib_eabi.lib : sysctl.obj (.text:SysCtl_selectXTALSingleEnded)
                  0008275a    0000001e                        : sysctl.obj (.text:DCC_setCounter1ClkSource)
                  00082778    0000001e                        : interrupt.obj (.text:Interrupt_initVectorTable)
                  00082796    0000001d     rts2800_fpu32_eabi.lib : memcpy.c.obj (.text)
                  000827b3    0000001c     driverlib_eabi.lib : sysctl.obj (.text:DCC_setCounter0ClkSource)
                  000827cf    0000001a                        : sysctl.obj (.text:SysCtl_getLowSpeedClock)
                  000827e9    00000017                        : cputimer.obj (.text:CPUTimer_isBaseValid)
                  00082800    00000017     main.obj (.text:PZCD1_ISR)
                  00082817    00000017     driverlib_eabi.lib : sysctl.obj (.text:SysCtl_enablePeripheral)
                  0008282e    00000017     rts2800_fpu32_eabi.lib : boot28.asm.obj (.text)
                  00082845    00000016     driverlib_eabi.lib : sysctl.obj (.text:DCC_disableDoneSignal)
                  0008285b    00000016                        : sysctl.obj (.text:DCC_enableDoneSignal)
                  00082871    00000016                        : interrupt.obj (.text:Interrupt_defaultHandler)
                  00082887    00000015                        : sysctl.obj (.text:DCC_clearDoneFlag)
                  0008289c    00000015                        : sysctl.obj (.text:DCC_clearErrorFlag)
                  000828b1    00000015                        : sysctl.obj (.text:DCC_disableErrorSignal)
                  000828c6    00000015                        : sysctl.obj (.text:DCC_enableErrorSignal)
                  000828db    00000014                        : sysctl.obj (.text:DCC_disableModule)
                  000828ef    00000014                        : sysctl.obj (.text:DCC_enableModule)
                  00082903    00000014                        : gpio.obj (.text:GPIO_isPinValid)
                  00082917    00000013                        : cputimer.obj (.text:CPUTimer_setEmulationMode)
                  0008292a    00000010                        : sysctl.obj (.text:DCC_isBaseValid)
                  0008293a    00000010     device.obj (.text:Device_initGPIO)
                  0008294a    00000010     driverlib_eabi.lib : flash.obj (.text:Flash_isCtrlBaseValid)
                  0008295a    00000010                        : flash.obj (.text:Flash_isECCBaseValid)
                  0008296a    00000010     main.obj (.text:ISR1)
                  0008297a    0000000d     main.obj (.text:ISR2)
                  00082987    0000000d     main.obj (.text:ISR3)
                  00082994    0000000d     driverlib_eabi.lib : interrupt.obj (.text:Interrupt_disableGlobal)
                  000829a1    0000000d                        : interrupt.obj (.text:Interrupt_enableGlobal)
                  000829ae    0000000c     rts2800_fpu32_eabi.lib : args_main.c.obj (.text)
                  000829ba    0000000b     Mult_CLLC_HAL.obj (.text:Mult_CLLC_HAL_setupDevice)
                  000829c5    0000000b     driverlib_eabi.lib : sysctl.obj (.text:SysCtl_isMCDClockFailureDetected)
                  000829d0    0000000a                        : interrupt.obj (.text:Interrupt_illegalOperationHandler)
                  000829da    0000000a                        : interrupt.obj (.text:Interrupt_nmiHandler)
                  000829e4    00000009     Mult_CLLC_HAL.obj (.text:Mult_CLLC_HAL_disablePWMClkCounting)
                  000829ed    00000009     main.obj (.text:main)
                  000829f6    00000009     rts2800_fpu32_eabi.lib : _lock.c.obj (.text)
                  000829ff    00000008     Mult_CLLC_HAL.obj (.text:Mult_CLLC_HAL_enablePWMClkCounting)
                  00082a07    00000008     rts2800_fpu32_eabi.lib : copy_decompress_none.c.obj (.text:decompress:none)
                  00082a0f    00000008     f28004x_codestartbranch.obj (.text)
                  00082a17    00000007     board.obj (.text:CPUTIMER_init)
                  00082a1e    00000007     driverlib_eabi.lib : sysctl.obj (.text:SysCtl_resetMCD)
                  00082a25    00000003     device.obj (.text:__error__)
                  00082a28    00000002     rts2800_fpu32_eabi.lib : pre_init.c.obj (.text)
                  00082a2a    00000001                            : startup.c.obj (.text)

MODULE SUMMARY

       Module                        code   ro data   rw data
       ------                        ----   -------   -------
    .\
       main.obj                      138    0         2      
    +--+-----------------------------+------+---------+---------+
       Total:                        138    0         2      
                                                             
    .\BoardHAL\
       Mult_CLLC_HAL.obj             28     0         0      
    +--+-----------------------------+------+---------+---------+
       Total:                        28     0         0      
                                                             
    .\device\
       device.obj                    349    0         0      
       f28004x_codestartbranch.obj   10     0         0      
    +--+-----------------------------+------+---------+---------+
       Total:                        359    0         0      
                                                             
    .\syscfg\
       board.obj                     204    0         0      
    +--+-----------------------------+------+---------+---------+
       Total:                        204    0         0      
                                                             
    C:\ti\C2000Ware_5_01_00_00\driverlib\f28004x\driverlib\ccs\Debug\driverlib_eabi.lib
       sysctl.obj                    1171   154       0      
       flash.obj                     618    155       0      
       gpio.obj                      209    152       0      
       interrupt.obj                 214    0         0      
       cputimer.obj                  42     80        0      
    +--+-----------------------------+------+---------+---------+
       Total:                        2254   541       0      
                                                             
    C:\ti\ccstheia140\ccs\tools\compiler\ti-cgt-c2000_22.6.1A23259\lib\rts2800_fpu32_eabi.lib
       copy_decompress_lzss.c.obj    48     0         0      
       exit.c.obj                    41     0         6      
       autoinit.c.obj                43     0         0      
       memcpy.c.obj                  29     0         0      
       boot28.asm.obj                23     0         0      
       _lock.c.obj                   9      0         4      
       args_main.c.obj               12     0         0      
       copy_decompress_none.c.obj    8      0         0      
       pre_init.c.obj                2      0         0      
       startup.c.obj                 1      0         0      
    +--+-----------------------------+------+---------+---------+
       Total:                        216    0         10     
                                                             
       Stack:                        0      0         1016   
       Linker Generated:             0      18        0      
    +--+-----------------------------+------+---------+---------+
       Grand Total:                  3199   559       1028   


LINKER GENERATED COPY TABLES

__TI_cinit_table @ 0008113a records: 1, size/record: 4, table size: 4
	.data: load addr=0008112c, load size=0000000a bytes, run addr=0000a800, run size=0000000c bytes, compression=lzss


LINKER GENERATED HANDLER TABLE

__TI_handler_table @ 00081136 records: 2, size/record: 2, table size: 4
	index: 0, handler: __TI_decompress_lzss
	index: 1, handler: __TI_decompress_none


GLOBAL DATA SYMBOLS: SORTED BY DATA PAGE

address     data page           name
--------    ----------------    ----
00000400      10 (00000400)     __stack

0000a800     2a0 (0000a800)     __TI_enable_exit_profile_output
0000a802     2a0 (0000a800)     __TI_cleanup_ptr
0000a804     2a0 (0000a800)     __TI_dtors_ptr
0000a806     2a0 (0000a800)     _lock
0000a808     2a0 (0000a800)     _unlock
0000a80a     2a0 (0000a800)     fault_input1_flag
0000a80b     2a0 (0000a800)     fault_input2_flag


GLOBAL SYMBOLS: SORTED ALPHABETICALLY BY Name 

page  address   name                               
----  -------   ----                               
0     00082661  C$$EXIT                            
0     00082a17  CPUTIMER_init                      
0     00082917  CPUTimer_setEmulationMode          
0     00082000  Device_enableAllPeripherals        
0     000822c7  Device_init                        
0     0008293a  Device_initGPIO                    
0     000826fa  FAULT_INPUT1_ISR                   
0     0008271a  FAULT_INPUT2_ISR                   
0     00008000  Flash_initModule                   
0     000824f8  GPIO_setAnalogMode                 
0     000825d5  GPIO_setDirectionMode              
0     00082398  GPIO_setPadConfig                  
0     00082478  INTERRUPT_init                     
0     0008296a  ISR1                               
0     0008297a  ISR2                               
0     00082987  ISR3                               
0     00082871  Interrupt_defaultHandler           
0     00082532  Interrupt_enable                   
0     000829d0  Interrupt_illegalOperationHandler  
0     000824bb  Interrupt_initModule               
0     00082778  Interrupt_initVectorTable          
0     000829da  Interrupt_nmiHandler               
0     000829e4  Mult_CLLC_HAL_disablePWMClkCounting
0     000829ff  Mult_CLLC_HAL_enablePWMClkCounting 
0     000829ba  Mult_CLLC_HAL_setupDevice          
0     00082800  PZCD1_ISR                          
0     00081129  RamfuncsLoadEnd                    
abs   00000129  RamfuncsLoadSize                   
0     00081000  RamfuncsLoadStart                  
0     00008129  RamfuncsRunEnd                     
abs   00000129  RamfuncsRunSize                    
0     00008000  RamfuncsRunStart                   
0     00008125  SysCtl_delay                       
0     0008233a  SysCtl_getClock                    
0     000827cf  SysCtl_getLowSpeedClock            
0     00082197  SysCtl_isPLLValid                  
0     000823ea  SysCtl_selectOscSource             
0     00082569  SysCtl_selectXTAL                  
0     0008273a  SysCtl_selectXTALSingleEnded       
0     000820d7  SysCtl_setClock                    
0     0008113a  __TI_CINIT_Base                    
0     0008113e  __TI_CINIT_Limit                   
0     0008113e  __TI_CINIT_Warm                    
0     00081136  __TI_Handler_Table_Base            
0     0008113a  __TI_Handler_Table_Limit           
1     000007f8  __TI_STACK_END                     
abs   000003f8  __TI_STACK_SIZE                    
0     00082636  __TI_auto_init_nobinit_nopinit     
1     0000a802  __TI_cleanup_ptr                   
0     00082606  __TI_decompress_lzss               
0     00082a07  __TI_decompress_none               
1     0000a804  __TI_dtors_ptr                     
1     0000a800  __TI_enable_exit_profile_output    
abs   ffffffff  __TI_pprof_out_hndl                
abs   ffffffff  __TI_prof_data_size                
abs   ffffffff  __TI_prof_data_start               
n/a   UNDEFED   __c_args__                         
0     00082a25  __error__                          
1     00000400  __stack                            
0     000829ae  _args_main                         
0     0008282e  _c_int00                           
1     0000a806  _lock                              
0     000829fe  _nop                               
0     000829fa  _register_lock                     
0     000829f6  _register_unlock                   
0     00082a2a  _system_post_cinit                 
0     00082a28  _system_pre_init                   
1     0000a808  _unlock                            
0     00082661  abort                              
0     00080000  code_start                         
0     00082663  exit                               
1     0000a80a  fault_input1_flag                  
1     0000a80b  fault_input2_flag                  
0     000829ed  main                               
0     00082796  memcpy                             
0     0008268a  myCPUTIMER0_init                   
0     000826b0  myCPUTIMER1_init                   
0     0008259f  myCPUTIMER2_init                   


GLOBAL SYMBOLS: SORTED BY Symbol Address 

page  address   name                               
----  -------   ----                               
0     00008000  Flash_initModule                   
0     00008000  RamfuncsRunStart                   
0     00008125  SysCtl_delay                       
0     00008129  RamfuncsRunEnd                     
0     00080000  code_start                         
0     00081000  RamfuncsLoadStart                  
0     00081129  RamfuncsLoadEnd                    
0     00081136  __TI_Handler_Table_Base            
0     0008113a  __TI_CINIT_Base                    
0     0008113a  __TI_Handler_Table_Limit           
0     0008113e  __TI_CINIT_Limit                   
0     0008113e  __TI_CINIT_Warm                    
0     00082000  Device_enableAllPeripherals        
0     000820d7  SysCtl_setClock                    
0     00082197  SysCtl_isPLLValid                  
0     000822c7  Device_init                        
0     0008233a  SysCtl_getClock                    
0     00082398  GPIO_setPadConfig                  
0     000823ea  SysCtl_selectOscSource             
0     00082478  INTERRUPT_init                     
0     000824bb  Interrupt_initModule               
0     000824f8  GPIO_setAnalogMode                 
0     00082532  Interrupt_enable                   
0     00082569  SysCtl_selectXTAL                  
0     0008259f  myCPUTIMER2_init                   
0     000825d5  GPIO_setDirectionMode              
0     00082606  __TI_decompress_lzss               
0     00082636  __TI_auto_init_nobinit_nopinit     
0     00082661  C$$EXIT                            
0     00082661  abort                              
0     00082663  exit                               
0     0008268a  myCPUTIMER0_init                   
0     000826b0  myCPUTIMER1_init                   
0     000826fa  FAULT_INPUT1_ISR                   
0     0008271a  FAULT_INPUT2_ISR                   
0     0008273a  SysCtl_selectXTALSingleEnded       
0     00082778  Interrupt_initVectorTable          
0     00082796  memcpy                             
0     000827cf  SysCtl_getLowSpeedClock            
0     00082800  PZCD1_ISR                          
0     0008282e  _c_int00                           
0     00082871  Interrupt_defaultHandler           
0     00082917  CPUTimer_setEmulationMode          
0     0008293a  Device_initGPIO                    
0     0008296a  ISR1                               
0     0008297a  ISR2                               
0     00082987  ISR3                               
0     000829ae  _args_main                         
0     000829ba  Mult_CLLC_HAL_setupDevice          
0     000829d0  Interrupt_illegalOperationHandler  
0     000829da  Interrupt_nmiHandler               
0     000829e4  Mult_CLLC_HAL_disablePWMClkCounting
0     000829ed  main                               
0     000829f6  _register_unlock                   
0     000829fa  _register_lock                     
0     000829fe  _nop                               
0     000829ff  Mult_CLLC_HAL_enablePWMClkCounting 
0     00082a07  __TI_decompress_none               
0     00082a17  CPUTIMER_init                      
0     00082a25  __error__                          
0     00082a28  _system_pre_init                   
0     00082a2a  _system_post_cinit                 
1     00000400  __stack                            
1     000007f8  __TI_STACK_END                     
1     0000a800  __TI_enable_exit_profile_output    
1     0000a802  __TI_cleanup_ptr                   
1     0000a804  __TI_dtors_ptr                     
1     0000a806  _lock                              
1     0000a808  _unlock                            
1     0000a80a  fault_input1_flag                  
1     0000a80b  fault_input2_flag                  
abs   00000129  RamfuncsLoadSize                   
abs   00000129  RamfuncsRunSize                    
abs   000003f8  __TI_STACK_SIZE                    
abs   ffffffff  __TI_pprof_out_hndl                
abs   ffffffff  __TI_prof_data_size                
abs   ffffffff  __TI_prof_data_start               
n/a   UNDEFED   __c_args__                         

[78 symbols]
